target datalayout = "e-m:e-p270:32:32-p271:32:32-p272:64:64-i64:64-i128:128-f80:128-n8:16:32:64-S128"
target triple = "x86_64-pc-linux-gnu"

@Verbose = external global i8, align 1
@stderr = external global ptr, align 8
@.str = private unnamed_addr constant [35 x i8] c"LAB color lightness range = %d,%d\0A\00", align 1
@.str.1 = private unnamed_addr constant [25 x i8] c"size of lab gamut = %zu\0A\00", align 1
@lab_gamut_data_size = external constant i64, align 8
@lab_gamut_data = external constant [0 x i8], align 1
@.str.4 = private unnamed_addr constant [58 x i8] c"integer overflow when trying to allocate %zu * %zu bytes\0A\00", align 1
@.str.5 = private unnamed_addr constant [49 x i8] c"out of memory when trying to allocate %zu bytes\0A\00", align 1

; Function Attrs: inlinehint nounwind uwtable
define internal ptr @gv_calloc(i64 noundef %0, i64 noundef %1) #5 {
  %3 = alloca i64, align 8
  %4 = alloca i64, align 8
  %5 = alloca ptr, align 8
  store i64 %0, ptr %3, align 8, !tbaa !30
  store i64 %1, ptr %4, align 8, !tbaa !30
  %6 = load i64, ptr %3, align 8, !tbaa !30
  %7 = icmp ugt i64 %6, 0
  br i1 %7, label %8, label %18

8:                                                ; preds = %2
  %9 = load i64, ptr %3, align 8, !tbaa !30
  %10 = udiv i64 -1, %9
  %11 = load i64, ptr %4, align 8, !tbaa !30
  %12 = icmp ult i64 %10, %11
  br i1 %12, label %13, label %18

13:                                               ; preds = %8
  %14 = load ptr, ptr @stderr, align 8, !tbaa !28
  %15 = load i64, ptr %3, align 8, !tbaa !30
  %16 = load i64, ptr %4, align 8, !tbaa !30
  %17 = call i32 (ptr, ptr, ...) @fprintf(ptr noundef %14, ptr noundef @.str.4, i64 noundef %15, i64 noundef %16) #11
  call void @graphviz_exit(i32 noundef 1) #12
  unreachable

18:                                               ; preds = %8, %2
  call void @llvm.lifetime.start.p0(i64 8, ptr %5) #11
  %19 = load i64, ptr %3, align 8, !tbaa !30
  %20 = load i64, ptr %4, align 8, !tbaa !30
  %21 = call noalias ptr @calloc(i64 noundef %19, i64 noundef %20) #13
  store ptr %21, ptr %5, align 8, !tbaa !35
  %22 = load i64, ptr %3, align 8, !tbaa !30
  %23 = icmp ugt i64 %22, 0
  br i1 %23, label %24, label %36

24:                                               ; preds = %18
  %25 = load i64, ptr %4, align 8, !tbaa !30
  %26 = icmp ugt i64 %25, 0
  br i1 %26, label %27, label %36

27:                                               ; preds = %24
  %28 = load ptr, ptr %5, align 8, !tbaa !35
  %29 = icmp eq ptr %28, null
  br i1 %29, label %30, label %36

30:                                               ; preds = %27
  %31 = load ptr, ptr @stderr, align 8, !tbaa !28
  %32 = load i64, ptr %3, align 8, !tbaa !30
  %33 = load i64, ptr %4, align 8, !tbaa !30
  %34 = mul i64 %32, %33
  %35 = call i32 (ptr, ptr, ...) @fprintf(ptr noundef %31, ptr noundef @.str.5, i64 noundef %34) #11
  call void @graphviz_exit(i32 noundef 1) #12
  unreachable

36:                                               ; preds = %27, %24, %18
  %37 = load ptr, ptr %5, align 8, !tbaa !35
  call void @llvm.lifetime.end.p0(i64 8, ptr %5) #11
  ret ptr %37
}

; Function Attrs: nounwind uwtable
define ptr @lab_gamut(ptr noundef %0, ptr noundef %1) #0 {
  %3 = alloca ptr, align 8
  %4 = alloca ptr, align 8
  %5 = alloca ptr, align 8
  %6 = alloca ptr, align 8
  %7 = alloca i32, align 4
  %8 = alloca i32, align 4
  %9 = alloca i64, align 8
  %10 = alloca i64, align 8
  %11 = alloca i32, align 4
  %12 = alloca i32, align 4
  %13 = alloca i32, align 4
  %14 = alloca i32, align 4
  store ptr %0, ptr %3, align 8, !tbaa !25
  store ptr %1, ptr %4, align 8, !tbaa !25
  call void @llvm.lifetime.start.p0(i64 8, ptr %5) #11
  call void @llvm.lifetime.start.p0(i64 8, ptr %6) #11
  call void @llvm.lifetime.start.p0(i64 4, ptr %7) #11
  %15 = load ptr, ptr %3, align 8, !tbaa !25
  %16 = getelementptr inbounds i32, ptr %15, i64 0
  %17 = load i32, ptr %16, align 4, !tbaa !19
  store i32 %17, ptr %7, align 4, !tbaa !19
  call void @llvm.lifetime.start.p0(i64 4, ptr %8) #11
  %18 = load ptr, ptr %3, align 8, !tbaa !25
  %19 = getelementptr inbounds i32, ptr %18, i64 1
  %20 = load i32, ptr %19, align 4, !tbaa !19
  store i32 %20, ptr %8, align 4, !tbaa !19
  %21 = load i32, ptr %7, align 4, !tbaa !19
  %22 = icmp slt i32 %21, 0
  br i1 %22, label %23, label %24

23:                                               ; preds = %2
  store i32 0, ptr %7, align 4, !tbaa !19
  br label %24

24:                                               ; preds = %23, %2
  %25 = load i32, ptr %8, align 4, !tbaa !19
  %26 = icmp sgt i32 %25, 100
  br i1 %26, label %27, label %28

27:                                               ; preds = %24
  store i32 100, ptr %8, align 4, !tbaa !19
  br label %28

28:                                               ; preds = %27, %24
  %29 = load i32, ptr %7, align 4, !tbaa !19
  %30 = load i32, ptr %8, align 4, !tbaa !19
  %31 = icmp sgt i32 %29, %30
  br i1 %31, label %32, label %34

32:                                               ; preds = %28
  %33 = load i32, ptr %8, align 4, !tbaa !19
  store i32 %33, ptr %7, align 4, !tbaa !19
  br label %34

34:                                               ; preds = %32, %28
  %35 = load i8, ptr @Verbose, align 1, !tbaa !27
  %36 = icmp ne i8 %35, 0
  br i1 %36, label %37, label %42

37:                                               ; preds = %34
  %38 = load ptr, ptr @stderr, align 8, !tbaa !28
  %39 = load i32, ptr %7, align 4, !tbaa !19
  %40 = load i32, ptr %8, align 4, !tbaa !19
  %41 = call i32 (ptr, ptr, ...) @fprintf(ptr noundef %38, ptr noundef @.str, i32 noundef %39, i32 noundef %40) #11
  br label %42

42:                                               ; preds = %37, %34
  %43 = load i8, ptr @Verbose, align 1, !tbaa !27
  %44 = icmp ne i8 %43, 0
  br i1 %44, label %45, label %49

45:                                               ; preds = %42
  %46 = load ptr, ptr @stderr, align 8, !tbaa !28
  %47 = load i64, ptr @lab_gamut_data_size, align 8, !tbaa !30
  %48 = call i32 (ptr, ptr, ...) @fprintf(ptr noundef %46, ptr noundef @.str.1, i64 noundef %47) #11
  br label %49

49:                                               ; preds = %45, %42
  call void @llvm.lifetime.start.p0(i64 8, ptr %9) #11
  %50 = load i32, ptr %8, align 4, !tbaa !19
  %51 = sext i32 %50 to i64
  %52 = load i32, ptr %7, align 4, !tbaa !19
  %53 = sext i32 %52 to i64
  %54 = sub i64 %51, %53
  %55 = add i64 %54, 1
  %56 = mul i64 %55, 256
  %57 = mul i64 %56, 256
  %58 = mul i64 %57, 3
  store i64 %58, ptr %9, align 8, !tbaa !30
  %59 = load i64, ptr %9, align 8, !tbaa !30
  %60 = call ptr @gv_calloc(i64 noundef %59, i64 noundef 8)
  store ptr %60, ptr %6, align 8, !tbaa !21
  %61 = load ptr, ptr %6, align 8, !tbaa !21
  store ptr %61, ptr %5, align 8, !tbaa !21
  %62 = load ptr, ptr %4, align 8, !tbaa !25
  store i32 0, ptr %62, align 4, !tbaa !19
  call void @llvm.lifetime.start.p0(i64 8, ptr %10) #11
  store i64 0, ptr %10, align 8, !tbaa !30
  br label %63

63:                                               ; preds = %127, %49
  %64 = load i64, ptr %10, align 8, !tbaa !30
  %65 = load i64, ptr @lab_gamut_data_size, align 8, !tbaa !30
  %66 = icmp ult i64 %64, %65
  br i1 %66, label %68, label %67

67:                                               ; preds = %63
  store i32 2, ptr %11, align 4
  call void @llvm.lifetime.end.p0(i64 8, ptr %10) #11
  br label %130

68:                                               ; preds = %63
  %69 = load i64, ptr %10, align 8, !tbaa !30
  %70 = getelementptr inbounds nuw [0 x i8], ptr @lab_gamut_data, i64 0, i64 %69
  %71 = load i8, ptr %70, align 1, !tbaa !27
  %72 = sext i8 %71 to i32
  %73 = load i32, ptr %7, align 4, !tbaa !19
  %74 = icmp sge i32 %72, %73
  br i1 %74, label %75, label %126

75:                                               ; preds = %68
  %76 = load i64, ptr %10, align 8, !tbaa !30
  %77 = getelementptr inbounds nuw [0 x i8], ptr @lab_gamut_data, i64 0, i64 %76
  %78 = load i8, ptr %77, align 1, !tbaa !27
  %79 = sext i8 %78 to i32
  %80 = load i32, ptr %8, align 4, !tbaa !19
  %81 = icmp sle i32 %79, %80
  br i1 %81, label %82, label %126

82:                                               ; preds = %75
  call void @llvm.lifetime.start.p0(i64 4, ptr %12) #11
  %83 = load i64, ptr %10, align 8, !tbaa !30
  %84 = add i64 %83, 2
  %85 = getelementptr inbounds nuw [0 x i8], ptr @lab_gamut_data, i64 0, i64 %84
  %86 = load i8, ptr %85, align 1, !tbaa !27
  %87 = sext i8 %86 to i32
  store i32 %87, ptr %12, align 4, !tbaa !19
  call void @llvm.lifetime.start.p0(i64 4, ptr %13) #11
  %88 = load i64, ptr %10, align 8, !tbaa !30
  %89 = add i64 %88, 3
  %90 = getelementptr inbounds nuw [0 x i8], ptr @lab_gamut_data, i64 0, i64 %89
  %91 = load i8, ptr %90, align 1, !tbaa !27
  %92 = sext i8 %91 to i32
  store i32 %92, ptr %13, align 4, !tbaa !19
  call void @llvm.lifetime.start.p0(i64 4, ptr %14) #11
  %93 = load i32, ptr %12, align 4, !tbaa !19
  store i32 %93, ptr %14, align 4, !tbaa !19
  br label %94

94:                                               ; preds = %122, %82
  %95 = load i32, ptr %14, align 4, !tbaa !19
  %96 = load i32, ptr %13, align 4, !tbaa !19
  %97 = icmp sle i32 %95, %96
  br i1 %97, label %99, label %98

98:                                               ; preds = %94
  store i32 5, ptr %11, align 4
  call void @llvm.lifetime.end.p0(i64 4, ptr %14) #11
  br label %125

99:                                               ; preds = %94
  %100 = load i64, ptr %10, align 8, !tbaa !30
  %101 = getelementptr inbounds nuw [0 x i8], ptr @lab_gamut_data, i64 0, i64 %100
  %102 = load i8, ptr %101, align 1, !tbaa !27
  %103 = sitofp i8 %102 to double
  %104 = load ptr, ptr %5, align 8, !tbaa !21
  %105 = getelementptr inbounds double, ptr %104, i64 0
  store double %103, ptr %105, align 8, !tbaa !3
  %106 = load i64, ptr %10, align 8, !tbaa !30
  %107 = add i64 %106, 1
  %108 = getelementptr inbounds nuw [0 x i8], ptr @lab_gamut_data, i64 0, i64 %107
  %109 = load i8, ptr %108, align 1, !tbaa !27
  %110 = sitofp i8 %109 to double
  %111 = load ptr, ptr %5, align 8, !tbaa !21
  %112 = getelementptr inbounds double, ptr %111, i64 1
  store double %110, ptr %112, align 8, !tbaa !3
  %113 = load i32, ptr %14, align 4, !tbaa !19
  %114 = sitofp i32 %113 to double
  %115 = load ptr, ptr %5, align 8, !tbaa !21
  %116 = getelementptr inbounds double, ptr %115, i64 2
  store double %114, ptr %116, align 8, !tbaa !3
  %117 = load ptr, ptr %5, align 8, !tbaa !21
  %118 = getelementptr inbounds double, ptr %117, i64 3
  store ptr %118, ptr %5, align 8, !tbaa !21
  %119 = load ptr, ptr %4, align 8, !tbaa !25
  %120 = load i32, ptr %119, align 4, !tbaa !19
  %121 = add nsw i32 %120, 1
  store i32 %121, ptr %119, align 4, !tbaa !19
  br label %122

122:                                              ; preds = %99
  %123 = load i32, ptr %14, align 4, !tbaa !19
  %124 = add nsw i32 %123, 1
  store i32 %124, ptr %14, align 4, !tbaa !19
  br label %94, !llvm.loop !32

125:                                              ; preds = %98
  call void @llvm.lifetime.end.p0(i64 4, ptr %13) #11
  call void @llvm.lifetime.end.p0(i64 4, ptr %12) #11
  br label %126

126:                                              ; preds = %125, %75, %68
  br label %127

127:                                              ; preds = %126
  %128 = load i64, ptr %10, align 8, !tbaa !30
  %129 = add i64 %128, 4
  store i64 %129, ptr %10, align 8, !tbaa !30
  br label %63, !llvm.loop !34

130:                                              ; preds = %67
  %131 = load ptr, ptr %6, align 8, !tbaa !21
  store i32 1, ptr %11, align 4
  call void @llvm.lifetime.end.p0(i64 8, ptr %9) #11
  call void @llvm.lifetime.end.p0(i64 4, ptr %8) #11
  call void @llvm.lifetime.end.p0(i64 4, ptr %7) #11
  call void @llvm.lifetime.end.p0(i64 8, ptr %6) #11
  call void @llvm.lifetime.end.p0(i64 8, ptr %5) #11
  ret ptr %131
}