; Function Attrs: nofree nounwind uwtable
define noalias noundef ptr @lab_gamut(ptr noundef readonly captures(none) %0, ptr noundef writeonly captures(none) %1) local_unnamed_addr #8 {
  %3 = load i32, ptr %0, align 4, !tbaa !18
  %4 = getelementptr inbounds nuw i8, ptr %0, i64 4
  %5 = load i32, ptr %4, align 4, !tbaa !18
  %spec.store.select = tail call i32 @llvm.smax.i32(i32 %3, i32 0)
  %spec.store.select1 = tail call i32 @llvm.smin.i32(i32 %5, i32 100)
  %spec.select = tail call i32 @llvm.smin.i32(i32 %spec.store.select, i32 %spec.store.select1)
  %6 = load i8, ptr @Verbose, align 1, !tbaa !39
  %.not = icmp eq i8 %6, 0
  br i1 %.not, label %.thread, label %7

7:                                                ; preds = %2
  %8 = load ptr, ptr @stderr, align 8, !tbaa !40
  %9 = tail call i32 (ptr, ptr, ...) @fprintf(ptr noundef %8, ptr noundef nonnull @.str, i32 noundef %spec.select, i32 noundef %spec.store.select1) #20
  %.pr = load i8, ptr @Verbose, align 1, !tbaa !39
  %.not39 = icmp eq i8 %.pr, 0
  br i1 %.not39, label %.thread, label %10

10:                                               ; preds = %7
  %11 = load ptr, ptr @stderr, align 8, !tbaa !40
  %12 = load i64, ptr @lab_gamut_data_size, align 8, !tbaa !43
  %13 = tail call i32 (ptr, ptr, ...) @fprintf(ptr noundef %11, ptr noundef nonnull @.str.1, i64 noundef %12) #20
  br label %.thread

.thread:                                          ; preds = %2, %10, %7
  %14 = sext i32 %spec.store.select1 to i64
  %15 = sext i32 %spec.select to i64
  %16 = sub nsw i64 %14, %15
  %17 = mul nsw i64 %16, 196608
  %18 = add nsw i64 %17, 196608
  %.not.i = icmp eq i64 %18, 0
  br i1 %.not.i, label %.thread.i, label %20

.thread.i:                                        ; preds = %.thread
  %19 = tail call noalias ptr @calloc(i64 noundef 0, i64 noundef 8) #21
  br label %gv_calloc.exit

20:                                               ; preds = %.thread
  %mul.ov.i = icmp ugt i64 %18, 2305843009213693951
  br i1 %mul.ov.i, label %21, label %24

21:                                               ; preds = %20
  %22 = load ptr, ptr @stderr, align 8, !tbaa !40
  %23 = tail call i32 (ptr, ptr, ...) @fprintf(ptr noundef %22, ptr noundef nonnull @.str.4, i64 noundef range(i64 -844424929738752, 844424930131969) %18, i64 noundef 8) #20
  tail call fastcc void @graphviz_exit() #22
  unreachable

24:                                               ; preds = %20
  %25 = tail call noalias ptr @calloc(i64 noundef range(i64 -844424929738752, 844424930131969) %18, i64 noundef 8) #21
  %26 = icmp eq ptr %25, null
  br i1 %26, label %27, label %gv_calloc.exit

27:                                               ; preds = %24
  %28 = load ptr, ptr @stderr, align 8, !tbaa !40
  %29 = shl nuw nsw i64 %18, 3
  %30 = tail call i32 (ptr, ptr, ...) @fprintf(ptr noundef %28, ptr noundef nonnull @.str.5, i64 noundef %29) #20
  tail call fastcc void @graphviz_exit() #22
  unreachable

gv_calloc.exit:                                   ; preds = %.thread.i, %24
  %31 = phi ptr [ %19, %.thread.i ], [ %25, %24 ]
  store i32 0, ptr %1, align 4, !tbaa !18
  %32 = load i64, ptr @lab_gamut_data_size, align 8, !tbaa !43
  %.not51 = icmp eq i64 %32, 0
  br i1 %.not51, label %._crit_edge, label %.lr.ph50

._crit_edge:                                      ; preds = %.loopexit, %gv_calloc.exit
  ret ptr %31

.lr.ph50:                                         ; preds = %gv_calloc.exit, %.loopexit
  %.promoted = phi i32 [ %.promoted53, %.loopexit ], [ 0, %gv_calloc.exit ]
  %.03549 = phi ptr [ %.2, %.loopexit ], [ %31, %gv_calloc.exit ]
  %.03747 = phi i64 [ %58, %.loopexit ], [ 0, %gv_calloc.exit ]
  %33 = getelementptr inbounds nuw [0 x i8], ptr @lab_gamut_data, i64 0, i64 %.03747
  %34 = load i8, ptr %33, align 1, !tbaa !39
  %35 = sext i8 %34 to i32
  %.not40 = icmp sgt i32 %spec.select, %35
  %.not41 = icmp slt i32 %spec.store.select1, %35
  %or.cond = or i1 %.not40, %.not41
  br i1 %or.cond, label %.loopexit, label %36

36:                                               ; preds = %.lr.ph50
  %37 = or disjoint i64 %.03747, 2
  %38 = getelementptr inbounds nuw [0 x i8], ptr @lab_gamut_data, i64 0, i64 %37
  %39 = load i8, ptr %38, align 1, !tbaa !39
  %40 = or disjoint i64 %.03747, 3
  %41 = getelementptr inbounds nuw [0 x i8], ptr @lab_gamut_data, i64 0, i64 %40
  %42 = load i8, ptr %41, align 1, !tbaa !39
  %.not4244 = icmp sgt i8 %39, %42
  br i1 %.not4244, label %.loopexit, label %.lr.ph

.lr.ph:                                           ; preds = %36
  %43 = sext i8 %42 to i32
  %44 = sext i8 %39 to i32
  %45 = sitofp i8 %34 to double
  %46 = or disjoint i64 %.03747, 1
  %47 = getelementptr inbounds nuw [0 x i8], ptr @lab_gamut_data, i64 0, i64 %46
  %48 = load i8, ptr %47, align 1, !tbaa !39
  %49 = sitofp i8 %48 to double
  br label %50

50:                                               ; preds = %.lr.ph, %50
  %51 = phi i32 [ %.promoted, %.lr.ph ], [ %56, %50 ]
  %.046 = phi i32 [ %44, %.lr.ph ], [ %57, %50 ]
  %.145 = phi ptr [ %.03549, %.lr.ph ], [ %55, %50 ]
  store double %45, ptr %.145, align 8, !tbaa !26
  %52 = getelementptr inbounds nuw i8, ptr %.145, i64 8
  store double %49, ptr %52, align 8, !tbaa !26
  %53 = sitofp i32 %.046 to double
  %54 = getelementptr inbounds nuw i8, ptr %.145, i64 16
  store double %53, ptr %54, align 8, !tbaa !26
  %55 = getelementptr inbounds nuw i8, ptr %.145, i64 24
  %56 = add nsw i32 %51, 1
  %57 = add nsw i32 %.046, 1
  %exitcond.not = icmp eq i32 %.046, %43
  br i1 %exitcond.not, label %..loopexit_crit_edge, label %50, !llvm.loop !45

..loopexit_crit_edge:                             ; preds = %50
  store i32 %56, ptr %1, align 4, !tbaa !18
  br label %.loopexit

.loopexit:                                        ; preds = %36, %..loopexit_crit_edge, %.lr.ph50
  %.promoted53 = phi i32 [ %.promoted, %.lr.ph50 ], [ %56, %..loopexit_crit_edge ], [ %.promoted, %36 ]
  %.2 = phi ptr [ %.03549, %.lr.ph50 ], [ %55, %..loopexit_crit_edge ], [ %.03549, %36 ]
  %58 = add nuw i64 %.03747, 4
  %59 = icmp ult i64 %58, %32
  br i1 %59, label %.lr.ph50, label %._crit_edge, !llvm.loop !47
}